
GSM Send SMS and Make a call.elf:     file format elf32-avr

Sections:
Idx Name          Size      VMA       LMA       File off  Algn
  0 .text         000002a4  00000000  00000000  00000074  2**1
                  CONTENTS, ALLOC, LOAD, READONLY, CODE
  1 .data         000000d4  00800060  000002a4  00000318  2**0
                  CONTENTS, ALLOC, LOAD, DATA
  2 .stab         000006cc  00000000  00000000  000003ec  2**2
                  CONTENTS, READONLY, DEBUGGING
  3 .stabstr      00000097  00000000  00000000  00000ab8  2**0
                  CONTENTS, READONLY, DEBUGGING
  4 .comment      0000002f  00000000  00000000  00000b4f  2**0
                  CONTENTS, READONLY
  5 .debug_aranges 00000088  00000000  00000000  00000b7e  2**0
                  CONTENTS, READONLY, DEBUGGING
  6 .debug_info   00000bd5  00000000  00000000  00000c06  2**0
                  CONTENTS, READONLY, DEBUGGING
  7 .debug_abbrev 000001db  00000000  00000000  000017db  2**0
                  CONTENTS, READONLY, DEBUGGING
  8 .debug_line   00000365  00000000  00000000  000019b6  2**0
                  CONTENTS, READONLY, DEBUGGING
  9 .debug_frame  00000120  00000000  00000000  00001d1c  2**2
                  CONTENTS, READONLY, DEBUGGING
 10 .debug_str    000001e7  00000000  00000000  00001e3c  2**0
                  CONTENTS, READONLY, DEBUGGING
 11 .debug_loc    000002bf  00000000  00000000  00002023  2**0
                  CONTENTS, READONLY, DEBUGGING
 12 .debug_ranges 00000078  00000000  00000000  000022e2  2**0
                  CONTENTS, READONLY, DEBUGGING

Disassembly of section .text:

00000000 <__vectors>:
   0:	0c 94 2a 00 	jmp	0x54	; 0x54 <__ctors_end>
   4:	0c 94 3f 00 	jmp	0x7e	; 0x7e <__bad_interrupt>
   8:	0c 94 3f 00 	jmp	0x7e	; 0x7e <__bad_interrupt>
   c:	0c 94 3f 00 	jmp	0x7e	; 0x7e <__bad_interrupt>
  10:	0c 94 3f 00 	jmp	0x7e	; 0x7e <__bad_interrupt>
  14:	0c 94 3f 00 	jmp	0x7e	; 0x7e <__bad_interrupt>
  18:	0c 94 3f 00 	jmp	0x7e	; 0x7e <__bad_interrupt>
  1c:	0c 94 3f 00 	jmp	0x7e	; 0x7e <__bad_interrupt>
  20:	0c 94 3f 00 	jmp	0x7e	; 0x7e <__bad_interrupt>
  24:	0c 94 3f 00 	jmp	0x7e	; 0x7e <__bad_interrupt>
  28:	0c 94 3f 00 	jmp	0x7e	; 0x7e <__bad_interrupt>
  2c:	0c 94 3f 00 	jmp	0x7e	; 0x7e <__bad_interrupt>
  30:	0c 94 3f 00 	jmp	0x7e	; 0x7e <__bad_interrupt>
  34:	0c 94 3f 00 	jmp	0x7e	; 0x7e <__bad_interrupt>
  38:	0c 94 3f 00 	jmp	0x7e	; 0x7e <__bad_interrupt>
  3c:	0c 94 3f 00 	jmp	0x7e	; 0x7e <__bad_interrupt>
  40:	0c 94 3f 00 	jmp	0x7e	; 0x7e <__bad_interrupt>
  44:	0c 94 3f 00 	jmp	0x7e	; 0x7e <__bad_interrupt>
  48:	0c 94 3f 00 	jmp	0x7e	; 0x7e <__bad_interrupt>
  4c:	0c 94 3f 00 	jmp	0x7e	; 0x7e <__bad_interrupt>
  50:	0c 94 3f 00 	jmp	0x7e	; 0x7e <__bad_interrupt>

00000054 <__ctors_end>:
  54:	11 24       	eor	r1, r1
  56:	1f be       	out	0x3f, r1	; 63
  58:	cf e5       	ldi	r28, 0x5F	; 95
  5a:	d4 e0       	ldi	r29, 0x04	; 4
  5c:	de bf       	out	0x3e, r29	; 62
  5e:	cd bf       	out	0x3d, r28	; 61

00000060 <__do_copy_data>:
  60:	11 e0       	ldi	r17, 0x01	; 1
  62:	a0 e6       	ldi	r26, 0x60	; 96
  64:	b0 e0       	ldi	r27, 0x00	; 0
  66:	e4 ea       	ldi	r30, 0xA4	; 164
  68:	f2 e0       	ldi	r31, 0x02	; 2
  6a:	02 c0       	rjmp	.+4      	; 0x70 <__do_copy_data+0x10>
  6c:	05 90       	lpm	r0, Z+
  6e:	0d 92       	st	X+, r0
  70:	a4 33       	cpi	r26, 0x34	; 52
  72:	b1 07       	cpc	r27, r17
  74:	d9 f7       	brne	.-10     	; 0x6c <__do_copy_data+0xc>
  76:	0e 94 3e 01 	call	0x27c	; 0x27c <main>
  7a:	0c 94 50 01 	jmp	0x2a0	; 0x2a0 <_exit>

0000007e <__bad_interrupt>:
  7e:	0c 94 00 00 	jmp	0	; 0x0 <__vectors>

00000082 <LCD_cmnd>:
	LCD_print("    Message    ");
	//_delay_ms(500);
	LCD_set_curser(2,1);
	usart_send_string("Message From Home security System:\n"); // Input SMS Data
	//usart_send_char('X');
	usart_send_char(0x1A);					// Ctrl-Z indicates end of SMS
  82:	88 bb       	out	0x18, r24	; 24
  84:	a8 98       	cbi	0x15, 0	; 21
  86:	a9 98       	cbi	0x15, 1	; 21
	LCD_clear();
  88:	aa 9a       	sbi	0x15, 2	; 21
  8a:	8a e1       	ldi	r24, 0x1A	; 26
	LCD_print(" Message Sent  ");
  8c:	8a 95       	dec	r24
  8e:	f1 f7       	brne	.-4      	; 0x8c <LCD_cmnd+0xa>
  90:	00 c0       	rjmp	.+0      	; 0x92 <LCD_cmnd+0x10>
  92:	aa 98       	cbi	0x15, 2	; 21
	LCD_set_curser(2,1);
  94:	8f e1       	ldi	r24, 0x1F	; 31
  96:	93 e0       	ldi	r25, 0x03	; 3
  98:	01 97       	sbiw	r24, 0x01	; 1
  9a:	f1 f7       	brne	.-4      	; 0x98 <LCD_cmnd+0x16>
	LCD_print("Successfully!!!");
  9c:	00 c0       	rjmp	.+0      	; 0x9e <LCD_cmnd+0x1c>
  9e:	00 00       	nop
  a0:	08 95       	ret

000000a2 <LCD_data>:
  a2:	88 bb       	out	0x18, r24	; 24
	#else
		//round up by default
		__ticks_dc = (uint32_t)(ceil(fabs(__tmp)));
	#endif

	__builtin_avr_delay_cycles(__ticks_dc);
  a4:	a8 9a       	sbi	0x15, 0	; 21
  a6:	a9 98       	cbi	0x15, 1	; 21
  a8:	aa 9a       	sbi	0x15, 2	; 21
  aa:	8a e1       	ldi	r24, 0x1A	; 26
  ac:	8a 95       	dec	r24
  ae:	f1 f7       	brne	.-4      	; 0xac <LCD_data+0xa>
  b0:	00 c0       	rjmp	.+0      	; 0xb2 <LCD_data+0x10>
  b2:	aa 98       	cbi	0x15, 2	; 21
  b4:	8f e1       	ldi	r24, 0x1F	; 31
	_delay_ms(1000);
	LCD_clear();
  b6:	93 e0       	ldi	r25, 0x03	; 3
  b8:	01 97       	sbiw	r24, 0x01	; 1
  ba:	f1 f7       	brne	.-4      	; 0xb8 <LCD_data+0x16>
	#else
		//round up by default
		__ticks_dc = (uint32_t)(ceil(fabs(__tmp)));
	#endif

	__builtin_avr_delay_cycles(__ticks_dc);
  bc:	00 c0       	rjmp	.+0      	; 0xbe <LCD_data+0x1c>
  be:	00 00       	nop
  c0:	08 95       	ret

000000c2 <LCD_initialize>:
	LCD_CMNDPORT &= ~(1<<LCD_EN);
	_delay_us(200);
}
void LCD_initialize(void)
{
	LCD_DATADDR = 0xFF;
  c2:	8f ef       	ldi	r24, 0xFF	; 255
  c4:	87 bb       	out	0x17, r24	; 23
	LCD_CMNDDDR = 0xFF;
  c6:	84 bb       	out	0x14, r24	; 20
	LCD_CMNDPORT &= ~(1<<LCD_EN);
  c8:	aa 98       	cbi	0x15, 2	; 21
	#else
		//round up by default
		__ticks_dc = (uint32_t)(ceil(fabs(__tmp)));
	#endif

	__builtin_avr_delay_cycles(__ticks_dc);
  ca:	2f ef       	ldi	r18, 0xFF	; 255
  cc:	89 ef       	ldi	r24, 0xF9	; 249
  ce:	90 e0       	ldi	r25, 0x00	; 0
  d0:	21 50       	subi	r18, 0x01	; 1
  d2:	80 40       	sbci	r24, 0x00	; 0
  d4:	90 40       	sbci	r25, 0x00	; 0
  d6:	e1 f7       	brne	.-8      	; 0xd0 <LCD_initialize+0xe>
  d8:	00 c0       	rjmp	.+0      	; 0xda <LCD_initialize+0x18>
  da:	00 00       	nop
	_delay_ms(20);
	LCD_cmnd(0x38);
  dc:	88 e3       	ldi	r24, 0x38	; 56
  de:	0e 94 41 00 	call	0x82	; 0x82 <LCD_cmnd>
  e2:	2f ef       	ldi	r18, 0xFF	; 255
  e4:	89 ef       	ldi	r24, 0xF9	; 249
  e6:	90 e0       	ldi	r25, 0x00	; 0
  e8:	21 50       	subi	r18, 0x01	; 1
  ea:	80 40       	sbci	r24, 0x00	; 0
  ec:	90 40       	sbci	r25, 0x00	; 0
  ee:	e1 f7       	brne	.-8      	; 0xe8 <LCD_initialize+0x26>
  f0:	00 c0       	rjmp	.+0      	; 0xf2 <LCD_initialize+0x30>
  f2:	00 00       	nop
	_delay_ms(20);
	LCD_cmnd(0x0E);
  f4:	8e e0       	ldi	r24, 0x0E	; 14
  f6:	0e 94 41 00 	call	0x82	; 0x82 <LCD_cmnd>
  fa:	2f ef       	ldi	r18, 0xFF	; 255
  fc:	89 ef       	ldi	r24, 0xF9	; 249
  fe:	90 e0       	ldi	r25, 0x00	; 0
 100:	21 50       	subi	r18, 0x01	; 1
 102:	80 40       	sbci	r24, 0x00	; 0
 104:	90 40       	sbci	r25, 0x00	; 0
 106:	e1 f7       	brne	.-8      	; 0x100 <LCD_initialize+0x3e>
 108:	00 c0       	rjmp	.+0      	; 0x10a <LCD_initialize+0x48>
 10a:	00 00       	nop
	_delay_ms(20);
	LCD_cmnd(0x01);
 10c:	81 e0       	ldi	r24, 0x01	; 1
 10e:	0e 94 41 00 	call	0x82	; 0x82 <LCD_cmnd>
 112:	2f ef       	ldi	r18, 0xFF	; 255
 114:	89 ef       	ldi	r24, 0xF9	; 249
 116:	90 e0       	ldi	r25, 0x00	; 0
 118:	21 50       	subi	r18, 0x01	; 1
 11a:	80 40       	sbci	r24, 0x00	; 0
 11c:	90 40       	sbci	r25, 0x00	; 0
 11e:	e1 f7       	brne	.-8      	; 0x118 <LCD_initialize+0x56>
 120:	00 c0       	rjmp	.+0      	; 0x122 <LCD_initialize+0x60>
 122:	00 00       	nop
 124:	08 95       	ret

00000126 <LCD_clear>:
	_delay_ms(20);
}
void LCD_clear(void)
{
	LCD_cmnd(0x01);
 126:	81 e0       	ldi	r24, 0x01	; 1
 128:	0e 94 41 00 	call	0x82	; 0x82 <LCD_cmnd>
 12c:	8f e3       	ldi	r24, 0x3F	; 63
 12e:	9f e1       	ldi	r25, 0x1F	; 31
 130:	01 97       	sbiw	r24, 0x01	; 1
 132:	f1 f7       	brne	.-4      	; 0x130 <LCD_clear+0xa>
 134:	00 c0       	rjmp	.+0      	; 0x136 <LCD_clear+0x10>
 136:	00 00       	nop
 138:	08 95       	ret

0000013a <LCD_print>:
	_delay_ms(2);
}
void LCD_print(char * str)
{
 13a:	1f 93       	push	r17
 13c:	cf 93       	push	r28
 13e:	df 93       	push	r29
 140:	ec 01       	movw	r28, r24
	unsigned char i=0;
	while(str[i] != 0)
 142:	88 81       	ld	r24, Y
 144:	88 23       	and	r24, r24
 146:	81 f0       	breq	.+32     	; 0x168 <LCD_print+0x2e>
	LCD_cmnd(0x01);
	_delay_ms(2);
}
void LCD_print(char * str)
{
	unsigned char i=0;
 148:	10 e0       	ldi	r17, 0x00	; 0
	while(str[i] != 0)
	{
		LCD_data(str[i]);
 14a:	0e 94 51 00 	call	0xa2	; 0xa2 <LCD_data>
		i++;
 14e:	1f 5f       	subi	r17, 0xFF	; 255
 150:	8f e1       	ldi	r24, 0x1F	; 31
 152:	9e e4       	ldi	r25, 0x4E	; 78
 154:	01 97       	sbiw	r24, 0x01	; 1
 156:	f1 f7       	brne	.-4      	; 0x154 <LCD_print+0x1a>
 158:	00 c0       	rjmp	.+0      	; 0x15a <LCD_print+0x20>
 15a:	00 00       	nop
	_delay_ms(2);
}
void LCD_print(char * str)
{
	unsigned char i=0;
	while(str[i] != 0)
 15c:	fe 01       	movw	r30, r28
 15e:	e1 0f       	add	r30, r17
 160:	f1 1d       	adc	r31, r1
 162:	80 81       	ld	r24, Z
 164:	81 11       	cpse	r24, r1
 166:	f1 cf       	rjmp	.-30     	; 0x14a <LCD_print+0x10>
	{
		LCD_data(str[i]);
		i++;
		_delay_ms(5);
	}
}
 168:	df 91       	pop	r29
 16a:	cf 91       	pop	r28
 16c:	1f 91       	pop	r17
 16e:	08 95       	ret

00000170 <usart_initialize>:
	LCD_data(num/10 + 0x30);
	LCD_data(num%10 + 0x30);
}
void usart_initialize()
{
	UCSRB = 1<<TXEN;
 170:	88 e0       	ldi	r24, 0x08	; 8
 172:	8a b9       	out	0x0a, r24	; 10
	UCSRC = (1<<UCSZ0)|(1<<UCSZ1)|(1<<URSEL);
 174:	86 e8       	ldi	r24, 0x86	; 134
 176:	80 bd       	out	0x20, r24	; 32
	UBRRL = 0x67;
 178:	87 e6       	ldi	r24, 0x67	; 103
 17a:	89 b9       	out	0x09, r24	; 9
 17c:	08 95       	ret

0000017e <usart_send_char>:
}
void usart_send_char(unsigned char txdata)
{
	while(!(UCSRA&(1<<UDRE)));
 17e:	5d 9b       	sbis	0x0b, 5	; 11
 180:	fe cf       	rjmp	.-4      	; 0x17e <usart_send_char>
	UDR = txdata;
 182:	8c b9       	out	0x0c, r24	; 12
 184:	08 95       	ret

00000186 <usart_send_string>:
}
void usart_send_string(char *str)
{
 186:	1f 93       	push	r17
 188:	cf 93       	push	r28
 18a:	df 93       	push	r29
 18c:	ec 01       	movw	r28, r24
	unsigned char i=0;
	while(str[i] != 0)
 18e:	88 81       	ld	r24, Y
 190:	88 23       	and	r24, r24
 192:	81 f0       	breq	.+32     	; 0x1b4 <usart_send_string+0x2e>
	while(!(UCSRA&(1<<UDRE)));
	UDR = txdata;
}
void usart_send_string(char *str)
{
	unsigned char i=0;
 194:	10 e0       	ldi	r17, 0x00	; 0
	while(str[i] != 0)
	{
		usart_send_char(str[i]);
 196:	0e 94 bf 00 	call	0x17e	; 0x17e <usart_send_char>
		i++;
 19a:	1f 5f       	subi	r17, 0xFF	; 255
 19c:	8f e1       	ldi	r24, 0x1F	; 31
 19e:	9e e4       	ldi	r25, 0x4E	; 78
 1a0:	01 97       	sbiw	r24, 0x01	; 1
 1a2:	f1 f7       	brne	.-4      	; 0x1a0 <usart_send_string+0x1a>
 1a4:	00 c0       	rjmp	.+0      	; 0x1a6 <usart_send_string+0x20>
 1a6:	00 00       	nop
	UDR = txdata;
}
void usart_send_string(char *str)
{
	unsigned char i=0;
	while(str[i] != 0)
 1a8:	fe 01       	movw	r30, r28
 1aa:	e1 0f       	add	r30, r17
 1ac:	f1 1d       	adc	r31, r1
 1ae:	80 81       	ld	r24, Z
 1b0:	81 11       	cpse	r24, r1
 1b2:	f1 cf       	rjmp	.-30     	; 0x196 <usart_send_string+0x10>
	{
		usart_send_char(str[i]);
		i++;
		_delay_ms(5);
	}
}
 1b4:	df 91       	pop	r29
 1b6:	cf 91       	pop	r28
 1b8:	1f 91       	pop	r17
 1ba:	08 95       	ret

000001bc <call>:
	_delay_ms(1000);
	LCD_clear();
}
void call()
{
	usart_send_string("AT\r\n");		// Transmit AT to the module – GSM Modem sendsOK
 1bc:	80 e6       	ldi	r24, 0x60	; 96
 1be:	90 e0       	ldi	r25, 0x00	; 0
 1c0:	0e 94 c3 00 	call	0x186	; 0x186 <usart_send_string>
 1c4:	2f ef       	ldi	r18, 0xFF	; 255
 1c6:	87 ea       	ldi	r24, 0xA7	; 167
 1c8:	91 e6       	ldi	r25, 0x61	; 97
 1ca:	21 50       	subi	r18, 0x01	; 1
 1cc:	80 40       	sbci	r24, 0x00	; 0
 1ce:	90 40       	sbci	r25, 0x00	; 0
 1d0:	e1 f7       	brne	.-8      	; 0x1ca <call+0xe>
 1d2:	00 c0       	rjmp	.+0      	; 0x1d4 <call+0x18>
 1d4:	00 00       	nop
	_delay_ms(2000);
	usart_send_string("ATE0\r\n");		// Echo Off
 1d6:	85 e6       	ldi	r24, 0x65	; 101
 1d8:	90 e0       	ldi	r25, 0x00	; 0
 1da:	0e 94 c3 00 	call	0x186	; 0x186 <usart_send_string>
 1de:	2f ef       	ldi	r18, 0xFF	; 255
 1e0:	87 ea       	ldi	r24, 0xA7	; 167
 1e2:	91 e6       	ldi	r25, 0x61	; 97
 1e4:	21 50       	subi	r18, 0x01	; 1
 1e6:	80 40       	sbci	r24, 0x00	; 0
 1e8:	90 40       	sbci	r25, 0x00	; 0
 1ea:	e1 f7       	brne	.-8      	; 0x1e4 <call+0x28>
 1ec:	00 c0       	rjmp	.+0      	; 0x1ee <call+0x32>
 1ee:	00 00       	nop
	_delay_ms(2000);
	LCD_clear();
 1f0:	0e 94 93 00 	call	0x126	; 0x126 <LCD_clear>
	LCD_print("    Calling    ");
 1f4:	87 ef       	ldi	r24, 0xF7	; 247
 1f6:	90 e0       	ldi	r25, 0x00	; 0
 1f8:	0e 94 9d 00 	call	0x13a	; 0x13a <LCD_print>
	usart_send_string("ATD+9779841491322;\r\n"); // Send SMS to a cell number
 1fc:	87 e0       	ldi	r24, 0x07	; 7
 1fe:	91 e0       	ldi	r25, 0x01	; 1
 200:	0e 94 c3 00 	call	0x186	; 0x186 <usart_send_string>
 204:	2f ef       	ldi	r18, 0xFF	; 255
 206:	87 ea       	ldi	r24, 0xA7	; 167
 208:	91 e6       	ldi	r25, 0x61	; 97
 20a:	21 50       	subi	r18, 0x01	; 1
 20c:	80 40       	sbci	r24, 0x00	; 0
 20e:	90 40       	sbci	r25, 0x00	; 0
 210:	e1 f7       	brne	.-8      	; 0x20a <call+0x4e>
 212:	00 c0       	rjmp	.+0      	; 0x214 <call+0x58>
 214:	00 00       	nop
	_delay_ms(2000);
	LCD_clear();
 216:	0e 94 93 00 	call	0x126	; 0x126 <LCD_clear>
 21a:	08 95       	ret

0000021c <call_abort>:
}
void call_abort()
{
	usart_send_string("AT\r\n");		// Transmit AT to the module – GSM Modem sendsOK
 21c:	80 e6       	ldi	r24, 0x60	; 96
 21e:	90 e0       	ldi	r25, 0x00	; 0
 220:	0e 94 c3 00 	call	0x186	; 0x186 <usart_send_string>
 224:	2f ef       	ldi	r18, 0xFF	; 255
 226:	87 ea       	ldi	r24, 0xA7	; 167
 228:	91 e6       	ldi	r25, 0x61	; 97
 22a:	21 50       	subi	r18, 0x01	; 1
 22c:	80 40       	sbci	r24, 0x00	; 0
 22e:	90 40       	sbci	r25, 0x00	; 0
 230:	e1 f7       	brne	.-8      	; 0x22a <call_abort+0xe>
 232:	00 c0       	rjmp	.+0      	; 0x234 <call_abort+0x18>
 234:	00 00       	nop
	_delay_ms(2000);
	usart_send_string("ATE0\r\n");		// Echo Off
 236:	85 e6       	ldi	r24, 0x65	; 101
 238:	90 e0       	ldi	r25, 0x00	; 0
 23a:	0e 94 c3 00 	call	0x186	; 0x186 <usart_send_string>
 23e:	2f ef       	ldi	r18, 0xFF	; 255
 240:	87 ea       	ldi	r24, 0xA7	; 167
 242:	91 e6       	ldi	r25, 0x61	; 97
 244:	21 50       	subi	r18, 0x01	; 1
 246:	80 40       	sbci	r24, 0x00	; 0
 248:	90 40       	sbci	r25, 0x00	; 0
 24a:	e1 f7       	brne	.-8      	; 0x244 <call_abort+0x28>
 24c:	00 c0       	rjmp	.+0      	; 0x24e <call_abort+0x32>
 24e:	00 00       	nop
	_delay_ms(2000);
	LCD_clear();
 250:	0e 94 93 00 	call	0x126	; 0x126 <LCD_clear>
	usart_send_string("ATH\r\n");
 254:	8c e1       	ldi	r24, 0x1C	; 28
 256:	91 e0       	ldi	r25, 0x01	; 1
 258:	0e 94 c3 00 	call	0x186	; 0x186 <usart_send_string>
 25c:	2f ef       	ldi	r18, 0xFF	; 255
 25e:	87 ea       	ldi	r24, 0xA7	; 167
 260:	91 e6       	ldi	r25, 0x61	; 97
 262:	21 50       	subi	r18, 0x01	; 1
 264:	80 40       	sbci	r24, 0x00	; 0
 266:	90 40       	sbci	r25, 0x00	; 0
 268:	e1 f7       	brne	.-8      	; 0x262 <call_abort+0x46>
 26a:	00 c0       	rjmp	.+0      	; 0x26c <call_abort+0x50>
 26c:	00 00       	nop
	_delay_ms(2000);
	LCD_print("Calling canceled");
 26e:	82 e2       	ldi	r24, 0x22	; 34
 270:	91 e0       	ldi	r25, 0x01	; 1
 272:	0e 94 9d 00 	call	0x13a	; 0x13a <LCD_print>
	LCD_clear();
 276:	0e 94 93 00 	call	0x126	; 0x126 <LCD_clear>
 27a:	08 95       	ret

0000027c <main>:
}
int main(void)
{
	LCD_initialize();
 27c:	0e 94 61 00 	call	0xc2	; 0xc2 <LCD_initialize>
	usart_initialize();
 280:	0e 94 b8 00 	call	0x170	; 0x170 <usart_initialize>
	call();
 284:	0e 94 de 00 	call	0x1bc	; 0x1bc <call>
 288:	2f ef       	ldi	r18, 0xFF	; 255
 28a:	8f e4       	ldi	r24, 0x4F	; 79
 28c:	93 ec       	ldi	r25, 0xC3	; 195
 28e:	21 50       	subi	r18, 0x01	; 1
 290:	80 40       	sbci	r24, 0x00	; 0
 292:	90 40       	sbci	r25, 0x00	; 0
 294:	e1 f7       	brne	.-8      	; 0x28e <main+0x12>
 296:	00 c0       	rjmp	.+0      	; 0x298 <main+0x1c>
 298:	00 00       	nop
	_delay_ms(4000);
	call_abort();
 29a:	0e 94 0e 01 	call	0x21c	; 0x21c <call_abort>
 29e:	ff cf       	rjmp	.-2      	; 0x29e <main+0x22>

000002a0 <_exit>:
 2a0:	f8 94       	cli

000002a2 <__stop_program>:
 2a2:	ff cf       	rjmp	.-2      	; 0x2a2 <__stop_program>
